; Function Attrs: mustprogress uwtable
define hidden void @_ZN2cv4face18FacemarkKazemiImpl14createLeafNodeERNS0_7regtreeElSt6vectorINS_6Point_IfEESaIS6_EE(ptr nonnull readnone align 8 captures(none) %0, ptr noundef nonnull readonly align 8 captures(none) dereferenceable(24) %1, i64 noundef %2, ptr noundef readonly %3) local_unnamed_addr #7 align 2 personality ptr @__gxx_personality_v0 {
  %5 = alloca %"struct.cv::face::tree_node", align 8
  call void @llvm.lifetime.start.p0(i64 48, ptr nonnull %5) #22
  %6 = getelementptr inbounds nuw i8, ptr %5, i64 24
  call void @llvm.memset.p0.i64(ptr noundef nonnull align 8 dereferenceable(24) %6, i8 0, i64 24, i1 false)
  %.not.i = icmp eq ptr %3, %6
  call void @llvm.memset.p0.i64(ptr noundef nonnull align 8 dereferenceable(16) %5, i8 -1, i64 16, i1 false)
  br i1 %.not.i, label %_ZNSt6vectorIN2cv6Point_IfEESaIS2_EEaSERKS4_.exit, label %7

7:                                                ; preds = %4
  %8 = getelementptr inbounds nuw i8, ptr %3, i64 8
  %9 = load ptr, ptr %8, align 8, !tbaa !47
  %10 = load ptr, ptr %3, align 8, !tbaa !32
  %11 = ptrtoint ptr %9 to i64
  %12 = ptrtoint ptr %10 to i64
  %13 = sub i64 %11, %12
  %14 = getelementptr inbounds nuw i8, ptr %5, i64 40
  %.not = icmp eq ptr %9, %10
  br i1 %.not, label %_ZSt4copyIN9__gnu_cxx17__normal_iteratorIPKN2cv6Point_IfEESt6vectorIS4_SaIS4_EEEENS1_IPS4_S9_EEET0_T_SE_SD_.exit.i, label %15

15:                                               ; preds = %7
  %16 = icmp ugt i64 %13, 9223372036854775800
  br i1 %16, label %17, label %_ZNSt12_Vector_baseIN2cv6Point_IfEESaIS2_EE11_M_allocateEm.exit.i.i, !prof !61

17:                                               ; preds = %15
  invoke void @_ZSt28__throw_bad_array_new_lengthv() #23
          to label %.noexc unwind label %33

.noexc:                                           ; preds = %17
  unreachable

_ZNSt12_Vector_baseIN2cv6Point_IfEESaIS2_EE11_M_allocateEm.exit.i.i: ; preds = %15
  %18 = invoke noalias noundef nonnull ptr @_Znwm(i64 noundef %13) #25
          to label %_ZNSt12_Vector_baseIN2cv6Point_IfEESaIS2_EE13_M_deallocateEPS2_m.exit.i unwind label %33

_ZNSt12_Vector_baseIN2cv6Point_IfEESaIS2_EE13_M_deallocateEPS2_m.exit.i: ; preds = %_ZNSt12_Vector_baseIN2cv6Point_IfEESaIS2_EE11_M_allocateEm.exit.i.i
  %19 = add i64 %11, -8
  %20 = sub i64 %19, %12
  %21 = and i64 %20, -8
  %22 = add i64 %21, 8
  call void @llvm.memcpy.p0.p0.i64(ptr nonnull align 4 %18, ptr align 4 %10, i64 %22, i1 false)
  store ptr %18, ptr %6, align 8, !tbaa !32
  %23 = getelementptr inbounds nuw i8, ptr %18, i64 %13
  store ptr %23, ptr %14, align 8, !tbaa !60
  br label %_ZSt4copyIN9__gnu_cxx17__normal_iteratorIPKN2cv6Point_IfEESt6vectorIS4_SaIS4_EEEENS1_IPS4_S9_EEET0_T_SE_SD_.exit.i

_ZSt4copyIN9__gnu_cxx17__normal_iteratorIPKN2cv6Point_IfEESt6vectorIS4_SaIS4_EEEENS1_IPS4_S9_EEET0_T_SE_SD_.exit.i: ; preds = %7, %_ZNSt12_Vector_baseIN2cv6Point_IfEESaIS2_EE13_M_deallocateEPS2_m.exit.i
  %24 = phi ptr [ %18, %_ZNSt12_Vector_baseIN2cv6Point_IfEESaIS2_EE13_M_deallocateEPS2_m.exit.i ], [ null, %7 ]
  %25 = getelementptr inbounds nuw i8, ptr %24, i64 %13
  %26 = getelementptr inbounds nuw i8, ptr %5, i64 32
  store ptr %25, ptr %26, align 8, !tbaa !47
  br label %_ZNSt6vectorIN2cv6Point_IfEESaIS2_EEaSERKS4_.exit

_ZNSt6vectorIN2cv6Point_IfEESaIS2_EEaSERKS4_.exit: ; preds = %_ZSt4copyIN9__gnu_cxx17__normal_iteratorIPKN2cv6Point_IfEESt6vectorIS4_SaIS4_EEEENS1_IPS4_S9_EEET0_T_SE_SD_.exit.i, %4
  %27 = load ptr, ptr %1, align 8, !tbaa !99
  %28 = getelementptr inbounds nuw %"struct.cv::face::tree_node", ptr %27, i64 %2
  call void @llvm.memset.p0.i64(ptr noundef nonnull align 8 dereferenceable(16) %28, i8 -1, i64 16, i1 false)
  %29 = getelementptr inbounds nuw i8, ptr %28, i64 24
  %30 = invoke noundef nonnull align 8 dereferenceable(24) ptr @_ZNSt6vectorIN2cv6Point_IfEESaIS2_EEaSERKS4_(ptr noundef nonnull align 8 dereferenceable(24) %29, ptr noundef nonnull align 8 dereferenceable(24) %6)
          to label %_ZN2cv4face9tree_nodeaSERKS1_.exit unwind label %33

_ZN2cv4face9tree_nodeaSERKS1_.exit:               ; preds = %_ZNSt6vectorIN2cv6Point_IfEESaIS2_EEaSERKS4_.exit
  %31 = load ptr, ptr %6, align 8, !tbaa !32
  %.not.i.i.i.i = icmp eq ptr %31, null
  br i1 %.not.i.i.i.i, label %_ZN2cv4face9tree_nodeD2Ev.exit, label %32

32:                                               ; preds = %_ZN2cv4face9tree_nodeaSERKS1_.exit
  call void @_ZdlPv(ptr noundef nonnull %31) #24
  br label %_ZN2cv4face9tree_nodeD2Ev.exit

_ZN2cv4face9tree_nodeD2Ev.exit:                   ; preds = %_ZN2cv4face9tree_nodeaSERKS1_.exit, %32
  call void @llvm.lifetime.end.p0(i64 48, ptr nonnull %5) #22
  ret void

33:                                               ; preds = %_ZNSt6vectorIN2cv6Point_IfEESaIS2_EEaSERKS4_.exit, %_ZNSt12_Vector_baseIN2cv6Point_IfEESaIS2_EE11_M_allocateEm.exit.i.i, %17
  %34 = landingpad { ptr, i32 }
          cleanup
  %35 = load ptr, ptr %6, align 8, !tbaa !32
  %.not.i.i.i.i5 = icmp eq ptr %35, null
  br i1 %.not.i.i.i.i5, label %_ZN2cv4face9tree_nodeD2Ev.exit6, label %36

36:                                               ; preds = %33
  call void @_ZdlPv(ptr noundef nonnull %35) #24
  br label %_ZN2cv4face9tree_nodeD2Ev.exit6

_ZN2cv4face9tree_nodeD2Ev.exit6:                  ; preds = %33, %36
  call void @llvm.lifetime.end.p0(i64 48, ptr nonnull %5) #22
  resume { ptr, i32 } %34
}